target datalayout = "e-m:e-p270:32:32-p271:32:32-p272:64:64-i64:64-i128:128-f80:128-n8:16:32:64-S128"
target triple = "x86_64-pc-linux-gnu"

%"class.llvm::SmallVectorBase" = type { ptr, i32, i32 }
%"struct.std::pair.199" = type { ptr, ptr }
%class.anon.206 = type { ptr, ptr, ptr }

; Function Attrs: mustprogress nounwind uwtable
define linkonce_odr hidden noundef ptr @_ZN4llvm25SmallVectorTemplateCommonISt4pairIPKNS_4LoopEPKNS_4SCEVEEvE5beginEv(ptr noundef nonnull align 8 dereferenceable(16) %0) #1 comdat align 2 {
  %2 = alloca ptr, align 8
  store ptr %0, ptr %2, align 8
  %3 = load ptr, ptr %2, align 8
  %4 = getelementptr inbounds nuw %"class.llvm::SmallVectorBase", ptr %3, i32 0, i32 0
  %5 = load ptr, ptr %4, align 8
  ret ptr %5
}

; Function Attrs: mustprogress nounwind uwtable
define linkonce_odr noundef zeroext i1 @_ZSteqIPKN4llvm4LoopEPKNS0_4SCEVEEbRKSt4pairIT_T0_ESC_(ptr noundef nonnull align 8 dereferenceable(16) %0, ptr noundef nonnull align 8 dereferenceable(16) %1) #1 comdat {
  %3 = alloca ptr, align 8
  %4 = alloca ptr, align 8
  store ptr %0, ptr %3, align 8
  store ptr %1, ptr %4, align 8
  %5 = load ptr, ptr %3, align 8
  %6 = getelementptr inbounds nuw %"struct.std::pair.199", ptr %5, i32 0, i32 0
  %7 = load ptr, ptr %6, align 8
  %8 = load ptr, ptr %4, align 8
  %9 = getelementptr inbounds nuw %"struct.std::pair.199", ptr %8, i32 0, i32 0
  %10 = load ptr, ptr %9, align 8
  %11 = icmp eq ptr %7, %10
  br i1 %11, label %12, label %20

12:                                               ; preds = %2
  %13 = load ptr, ptr %3, align 8
  %14 = getelementptr inbounds nuw %"struct.std::pair.199", ptr %13, i32 0, i32 1
  %15 = load ptr, ptr %14, align 8
  %16 = load ptr, ptr %4, align 8
  %17 = getelementptr inbounds nuw %"struct.std::pair.199", ptr %16, i32 0, i32 1
  %18 = load ptr, ptr %17, align 8
  %19 = icmp eq ptr %15, %18
  br label %20

20:                                               ; preds = %12, %2
  %21 = phi i1 [ false, %2 ], [ %19, %12 ]
  ret i1 %21
}

; Function Attrs: mustprogress nounwind uwtable
define linkonce_odr hidden noundef ptr @_ZN4llvm25SmallVectorTemplateCommonISt4pairIPKNS_4LoopEPKNS_4SCEVEEvE3endEv(ptr noundef nonnull align 8 dereferenceable(16) %0) #1 comdat align 2 {
  %2 = alloca ptr, align 8
  store ptr %0, ptr %2, align 8
  %3 = load ptr, ptr %2, align 8
  %4 = call noundef ptr @_ZN4llvm25SmallVectorTemplateCommonISt4pairIPKNS_4LoopEPKNS_4SCEVEEvE5beginEv(ptr noundef nonnull align 8 dereferenceable(16) %3)
  %5 = call noundef i64 @_ZNK4llvm15SmallVectorBaseIjE4sizeEv(ptr noundef nonnull align 8 dereferenceable(16) %3)
  %6 = getelementptr inbounds %"struct.std::pair.199", ptr %4, i64 %5
  ret ptr %6
}

; Function Attrs: mustprogress nounwind uwtable
define internal noundef ptr @"_ZZN4llvm12SCEVExpander12visitMulExprEPKNS_11SCEVMulExprEENK3$_0clEv"(ptr noundef nonnull align 8 dereferenceable(24) %0) #1 align 2 {
  %2 = alloca ptr, align 8
  %3 = alloca ptr, align 8
  %4 = alloca i64, align 8
  %5 = alloca i64, align 8
  %6 = alloca ptr, align 8
  %7 = alloca ptr, align 8
  %8 = alloca i64, align 8
  store ptr %0, ptr %2, align 8
  %9 = load ptr, ptr %2, align 8
  %10 = getelementptr inbounds nuw %class.anon.206, ptr %9, i32 0, i32 0
  %11 = load ptr, ptr %10, align 8
  %12 = getelementptr inbounds nuw %class.anon.206, ptr %9, i32 0, i32 1
  %13 = load ptr, ptr %12, align 8
  %14 = load ptr, ptr %13, align 8
  store ptr %14, ptr %3, align 8
  store i64 0, ptr %4, align 8
  store i64 9223372036854775807, ptr %5, align 8
  br label %15

15:                                               ; preds = %32, %1
  %16 = load ptr, ptr %3, align 8
  %17 = getelementptr inbounds nuw %class.anon.206, ptr %9, i32 0, i32 2
  %18 = load ptr, ptr %17, align 8
  %19 = call noundef ptr @_ZN4llvm25SmallVectorTemplateCommonISt4pairIPKNS_4LoopEPKNS_4SCEVEEvE3endEv(ptr noundef nonnull align 8 dereferenceable(16) %18)
  %20 = icmp ne ptr %16, %19
  br i1 %20, label %21, label %30

21:                                               ; preds = %15
  %22 = getelementptr inbounds nuw %class.anon.206, ptr %9, i32 0, i32 1
  %23 = load ptr, ptr %22, align 8
  %24 = load ptr, ptr %23, align 8
  %25 = load ptr, ptr %3, align 8
  %26 = call noundef zeroext i1 @_ZSteqIPKN4llvm4LoopEPKNS0_4SCEVEEbRKSt4pairIT_T0_ESC_(ptr noundef nonnull align 8 dereferenceable(16) %24, ptr noundef nonnull align 8 dereferenceable(16) %25)
  br i1 %26, label %27, label %30

27:                                               ; preds = %21
  %28 = load i64, ptr %4, align 8
  %29 = icmp ne i64 %28, 9223372036854775807
  br label %30

30:                                               ; preds = %27, %21, %15
  %31 = phi i1 [ false, %21 ], [ false, %15 ], [ %29, %27 ]
  br i1 %31, label %32, label %37

32:                                               ; preds = %30
  %33 = load i64, ptr %4, align 8
  %34 = add i64 %33, 1
  store i64 %34, ptr %4, align 8
  %35 = load ptr, ptr %3, align 8
  %36 = getelementptr inbounds %"struct.std::pair.199", ptr %35, i32 1
  store ptr %36, ptr %3, align 8
  br label %15, !llvm.loop !17

37:                                               ; preds = %30
  %38 = getelementptr inbounds nuw %class.anon.206, ptr %9, i32 0, i32 1
  %39 = load ptr, ptr %38, align 8
  %40 = load ptr, ptr %39, align 8
  %41 = getelementptr inbounds nuw %"struct.std::pair.199", ptr %40, i32 0, i32 1
  %42 = load ptr, ptr %41, align 8
  %43 = call noundef ptr @_ZN4llvm12SCEVExpander6expandEPKNS_4SCEVE(ptr noundef nonnull align 8 dereferenceable(816) %11, ptr noundef %42)
  store ptr %43, ptr %6, align 8
  store ptr null, ptr %7, align 8
  %44 = load i64, ptr %4, align 8
  %45 = and i64 %44, 1
  %46 = icmp ne i64 %45, 0
  br i1 %46, label %47, label %49

47:                                               ; preds = %37
  %48 = load ptr, ptr %6, align 8
  store ptr %48, ptr %7, align 8
  br label %49

49:                                               ; preds = %47, %37
  store i64 2, ptr %8, align 8
  br label %50

50:                                               ; preds = %74, %49
  %51 = load i64, ptr %8, align 8
  %52 = load i64, ptr %4, align 8
  %53 = icmp ule i64 %51, %52
  br i1 %53, label %54, label %77

54:                                               ; preds = %50
  %55 = load ptr, ptr %6, align 8
  %56 = load ptr, ptr %6, align 8
  %57 = call noundef ptr @_ZN4llvm12SCEVExpander11InsertBinopENS_11Instruction9BinaryOpsEPNS_5ValueES4_NS_4SCEV11NoWrapFlagsEb(ptr noundef nonnull align 8 dereferenceable(816) %11, i32 noundef 17, ptr noundef %55, ptr noundef %56, i32 noundef 0, i1 noundef zeroext true)
  store ptr %57, ptr %6, align 8
  %58 = load i64, ptr %4, align 8
  %59 = load i64, ptr %8, align 8
  %60 = and i64 %58, %59
  %61 = icmp ne i64 %60, 0
  br i1 %61, label %62, label %73

62:                                               ; preds = %54
  %63 = load ptr, ptr %7, align 8
  %64 = icmp ne ptr %63, null
  br i1 %64, label %65, label %69

65:                                               ; preds = %62
  %66 = load ptr, ptr %7, align 8
  %67 = load ptr, ptr %6, align 8
  %68 = call noundef ptr @_ZN4llvm12SCEVExpander11InsertBinopENS_11Instruction9BinaryOpsEPNS_5ValueES4_NS_4SCEV11NoWrapFlagsEb(ptr noundef nonnull align 8 dereferenceable(816) %11, i32 noundef 17, ptr noundef %66, ptr noundef %67, i32 noundef 0, i1 noundef zeroext true)
  br label %71

69:                                               ; preds = %62
  %70 = load ptr, ptr %6, align 8
  br label %71

71:                                               ; preds = %69, %65
  %72 = phi ptr [ %68, %65 ], [ %70, %69 ]
  store ptr %72, ptr %7, align 8
  br label %73

73:                                               ; preds = %71, %54
  br label %74

74:                                               ; preds = %73
  %75 = load i64, ptr %8, align 8
  %76 = shl i64 %75, 1
  store i64 %76, ptr %8, align 8
  br label %50, !llvm.loop !18

77:                                               ; preds = %50
  %78 = load ptr, ptr %3, align 8
  %79 = getelementptr inbounds nuw %class.anon.206, ptr %9, i32 0, i32 1
  %80 = load ptr, ptr %79, align 8
  store ptr %78, ptr %80, align 8
  %81 = load ptr, ptr %7, align 8
  ret ptr %81
}