; Function Attrs: mustprogress nounwind uwtable
define internal fastcc noundef ptr @"_ZZN4llvm12SCEVExpander12visitMulExprEPKNS_11SCEVMulExprEENK3$_0clEv"(ptr noundef nonnull readonly align 8 captures(none) dereferenceable(24) %0) unnamed_addr #0 align 2 {
  %2 = load ptr, ptr %0, align 8
  %3 = getelementptr inbounds nuw i8, ptr %0, i64 8
  %4 = load ptr, ptr %3, align 8
  %5 = load ptr, ptr %4, align 8
  %6 = getelementptr inbounds nuw i8, ptr %0, i64 16
  %7 = load ptr, ptr %6, align 8
  %8 = load ptr, ptr %7, align 8
  %9 = tail call noundef i64 @_ZNK4llvm15SmallVectorBaseIjE4sizeEv(ptr noundef nonnull align 8 dereferenceable(16) %7) #18
  %10 = getelementptr inbounds %"struct.std::pair.199", ptr %8, i64 %9
  %.not29 = icmp eq ptr %5, %10
  br i1 %.not29, label %.critedge, label %.lr.ph

.lr.ph:                                           ; preds = %1, %23
  %.02331 = phi ptr [ %25, %23 ], [ %5, %1 ]
  %.02430 = phi i64 [ %24, %23 ], [ 0, %1 ]
  %11 = load ptr, ptr %3, align 8
  %12 = load ptr, ptr %11, align 8
  %13 = load ptr, ptr %12, align 8
  %14 = load ptr, ptr %.02331, align 8
  %15 = icmp eq ptr %13, %14
  %16 = getelementptr inbounds nuw i8, ptr %12, i64 8
  %17 = load ptr, ptr %16, align 8
  %18 = getelementptr inbounds nuw i8, ptr %.02331, i64 8
  %19 = load ptr, ptr %18, align 8
  %20 = icmp eq ptr %17, %19
  %21 = select i1 %15, i1 %20, i1 false
  %22 = icmp ne i64 %.02430, 9223372036854775807
  %or.cond = select i1 %21, i1 %22, i1 false
  br i1 %or.cond, label %23, label %.critedge

23:                                               ; preds = %.lr.ph
  %24 = add nuw nsw i64 %.02430, 1
  %25 = getelementptr inbounds nuw i8, ptr %.02331, i64 16
  %26 = load ptr, ptr %6, align 8
  %27 = load ptr, ptr %26, align 8
  %28 = tail call noundef i64 @_ZNK4llvm15SmallVectorBaseIjE4sizeEv(ptr noundef nonnull align 8 dereferenceable(16) %26) #18
  %29 = getelementptr inbounds %"struct.std::pair.199", ptr %27, i64 %28
  %.not = icmp eq ptr %25, %29
  br i1 %.not, label %.critedge, label %.lr.ph, !llvm.loop !41

.critedge:                                        ; preds = %23, %.lr.ph, %1
  %.024.lcssa = phi i64 [ 0, %1 ], [ %.02430, %.lr.ph ], [ %24, %23 ]
  %.023.lcssa = phi ptr [ %5, %1 ], [ %.02331, %.lr.ph ], [ %25, %23 ]
  %30 = load ptr, ptr %3, align 8
  %31 = load ptr, ptr %30, align 8
  %32 = getelementptr inbounds nuw i8, ptr %31, i64 8
  %33 = load ptr, ptr %32, align 8
  %34 = tail call noundef ptr @_ZN4llvm12SCEVExpander6expandEPKNS_4SCEVE(ptr noundef nonnull align 8 dereferenceable(816) %2, ptr noundef %33)
  %35 = and i64 %.024.lcssa, 1
  %.not25 = icmp eq i64 %35, 0
  %spec.select = select i1 %.not25, ptr null, ptr %34
  %.not2636 = icmp ult i64 %.024.lcssa, 2
  br i1 %.not2636, label %._crit_edge, label %.lr.ph40

.lr.ph40:                                         ; preds = %.critedge, %41
  %.039 = phi i64 [ %42, %41 ], [ 2, %.critedge ]
  %.138 = phi ptr [ %.2, %41 ], [ %spec.select, %.critedge ]
  %.02237 = phi ptr [ %36, %41 ], [ %34, %.critedge ]
  %36 = tail call noundef ptr @_ZN4llvm12SCEVExpander11InsertBinopENS_11Instruction9BinaryOpsEPNS_5ValueES4_NS_4SCEV11NoWrapFlagsEb(ptr noundef nonnull align 8 dereferenceable(816) %2, i32 noundef 17, ptr noundef %.02237, ptr noundef %.02237, i32 noundef 0, i1 noundef zeroext true)
  %37 = and i64 %.039, %.024.lcssa
  %.not27 = icmp eq i64 %37, 0
  br i1 %.not27, label %41, label %38

38:                                               ; preds = %.lr.ph40
  %.not28 = icmp eq ptr %.138, null
  br i1 %.not28, label %41, label %39

39:                                               ; preds = %38
  %40 = tail call noundef ptr @_ZN4llvm12SCEVExpander11InsertBinopENS_11Instruction9BinaryOpsEPNS_5ValueES4_NS_4SCEV11NoWrapFlagsEb(ptr noundef nonnull align 8 dereferenceable(816) %2, i32 noundef 17, ptr noundef nonnull %.138, ptr noundef %36, i32 noundef 0, i1 noundef zeroext true)
  br label %41

41:                                               ; preds = %39, %38, %.lr.ph40
  %.2 = phi ptr [ %.138, %.lr.ph40 ], [ %40, %39 ], [ %36, %38 ]
  %42 = shl i64 %.039, 1
  %.not26 = icmp ugt i64 %42, %.024.lcssa
  br i1 %.not26, label %._crit_edge, label %.lr.ph40, !llvm.loop !42

._crit_edge:                                      ; preds = %41, %.critedge
  %.1.lcssa = phi ptr [ %spec.select, %.critedge ], [ %.2, %41 ]
  %43 = load ptr, ptr %3, align 8
  store ptr %.023.lcssa, ptr %43, align 8
  ret ptr %.1.lcssa
}